; Function Attrs: nounwind uwtable
define range(i32 0, 2) i32 @tls13_restore_handshake_digest_for_pha(ptr noundef %0) local_unnamed_addr #0 {
  %2 = getelementptr inbounds nuw i8, ptr %0, i64 3016
  %3 = load ptr, ptr %2, align 8, !tbaa !173
  %4 = icmp eq ptr %3, null
  br i1 %4, label %.sink.split, label %5

5:                                                ; preds = %1
  %6 = getelementptr inbounds nuw i8, ptr %0, i64 432
  %7 = load ptr, ptr %6, align 8, !tbaa !174
  %8 = tail call i32 @EVP_MD_CTX_copy_ex(ptr noundef %7, ptr noundef nonnull %3) #11
  %.not = icmp eq i32 %8, 0
  br i1 %.not, label %.sink.split, label %9

.sink.split:                                      ; preds = %5, %1
  %.sink = phi i32 [ 2826, %1 ], [ 2831, %5 ]
  tail call void @ERR_new() #11
  tail call void @ERR_set_debug(ptr noundef nonnull @.str, i32 noundef %.sink, ptr noundef nonnull @__func__.tls13_restore_handshake_digest_for_pha) #11
  tail call void (ptr, i32, i32, ptr, ...) @ossl_statem_fatal(ptr noundef nonnull %0, i32 noundef 80, i32 noundef 786691, ptr noundef null) #11
  br label %9

9:                                                ; preds = %.sink.split, %5
  %.0 = phi i32 [ 1, %5 ], [ 0, %.sink.split ]
  ret i32 %.0
}